target datalayout = "e-m:e-p270:32:32-p271:32:32-p272:64:64-i64:64-i128:128-f80:128-n8:16:32:64-S128"
target triple = "x86_64-pc-linux-gnu"

; Function Attrs: mustprogress nounwind uwtable
define dso_local noundef zeroext i1 @_ZN4llvm8Combiner6tryDCEERNS_12MachineInstrERNS_19MachineRegisterInfoE(ptr noundef nonnull align 8 dereferenceable(70) %0, ptr noundef nonnull align 8 dereferenceable(512) %1) #1 align 2 {
  %3 = alloca i1, align 1
  %4 = alloca ptr, align 8
  %5 = alloca ptr, align 8
  store ptr %0, ptr %4, align 8
  store ptr %1, ptr %5, align 8
  %6 = load ptr, ptr %4, align 8
  %7 = load ptr, ptr %5, align 8
  %8 = call noundef zeroext i1 @_ZN4llvm15isTriviallyDeadERKNS_12MachineInstrERKNS_19MachineRegisterInfoE(ptr noundef nonnull align 8 dereferenceable(70) %6, ptr noundef nonnull align 8 dereferenceable(512) %7)
  br i1 %8, label %10, label %9

9:                                                ; preds = %2
  store i1 false, ptr %3, align 1
  br label %16

10:                                               ; preds = %2
  br label %11

11:                                               ; preds = %10
  br label %12

12:                                               ; preds = %11
  %13 = load ptr, ptr %5, align 8
  %14 = load ptr, ptr %4, align 8
  call void @_ZN4llvm16salvageDebugInfoERKNS_19MachineRegisterInfoERNS_12MachineInstrE(ptr noundef nonnull align 8 dereferenceable(512) %13, ptr noundef nonnull align 8 dereferenceable(70) %14)
  %15 = load ptr, ptr %4, align 8
  call void @_ZN4llvm12MachineInstr15eraseFromParentEv(ptr noundef nonnull align 8 dereferenceable(70) %15)
  store i1 true, ptr %3, align 1
  br label %16

16:                                               ; preds = %12, %9
  %17 = load i1, ptr %3, align 1
  ret i1 %17
}