; Function Attrs: mustprogress nounwind uwtable
define dso_local noundef zeroext i1 @_ZN4llvm8Combiner6tryDCEERNS_12MachineInstrERNS_19MachineRegisterInfoE(ptr noundef nonnull align 8 dereferenceable(70) %0, ptr noundef nonnull align 8 dereferenceable(512) %1) local_unnamed_addr #0 align 2 {
  %3 = tail call noundef zeroext i1 @_ZN4llvm15isTriviallyDeadERKNS_12MachineInstrERKNS_19MachineRegisterInfoE(ptr noundef nonnull align 8 dereferenceable(70) %0, ptr noundef nonnull align 8 dereferenceable(512) %1) #17
  br i1 %3, label %4, label %5

4:                                                ; preds = %2
  tail call void @_ZN4llvm16salvageDebugInfoERKNS_19MachineRegisterInfoERNS_12MachineInstrE(ptr noundef nonnull align 8 dereferenceable(512) %1, ptr noundef nonnull align 8 dereferenceable(70) %0) #17
  tail call void @_ZN4llvm12MachineInstr15eraseFromParentEv(ptr noundef nonnull align 8 dereferenceable(70) %0) #17
  br label %5

5:                                                ; preds = %2, %4
  ret i1 %3
}